#include <math.h>
#include <stdio.h>
#include <stdlib.h>
#include <string.h>


int main()
{
	int a[300];
	char c;
	int i,n,max,ma;
	scanf("%d",&a[0]);
	scanf("%c",&c);
	i=1;
	while(c==',')
	{
		scanf("%d",&a[i]);
		scanf("%c",&c);
		i++;
	}
	n=i;
	i=1;
	max=a[0];
	if(n==1) printf("No");
	else
	{
	
		while(i<n)
	    {
		
			if(max<a[i]) max=a[i];
		    i++;
	    }
	    if(max==a[0]) ma=0;
		else ma=a[0];
	    i=0;
	    while(i<n)
	    {
		
			if((ma<a[i])&&(a[i]!=max)) ma=a[i];
		    i++;
	    }
	    if((max==ma)||(ma==0)) printf("No");
	    else printf("%d",ma);
	}

	return 0;
}