; ModuleID = '22/710.c'
source_filename = "22/710.c"
target datalayout = "e-m:e-p270:32:32-p271:32:32-p272:64:64-i64:64-f80:128-n8:16:32:64-S128"
target triple = "x86_64-pc-linux-gnu"

@.str = private unnamed_addr constant [3 x i8] c"%d\00", align 1
@.str.1 = private unnamed_addr constant [3 x i8] c"%c\00", align 1
@.str.2 = private unnamed_addr constant [3 x i8] c"No\00", align 1

; Function Attrs: noinline nounwind uwtable
define dso_local i32 @main() #0 {
  %1 = alloca i32, align 4
  %2 = alloca [300 x i32], align 16
  %3 = alloca i8, align 1
  %4 = alloca i32, align 4
  %5 = alloca i32, align 4
  %6 = alloca i32, align 4
  %7 = alloca i32, align 4
  store i32 0, i32* %1, align 4
  %8 = getelementptr inbounds [300 x i32], [300 x i32]* %2, i64 0, i64 0
  %9 = call i32 (i8*, ...) @__isoc99_scanf(i8* getelementptr inbounds ([3 x i8], [3 x i8]* @.str, i64 0, i64 0), i32* %8)
  %10 = call i32 (i8*, ...) @__isoc99_scanf(i8* getelementptr inbounds ([3 x i8], [3 x i8]* @.str.1, i64 0, i64 0), i8* %3)
  store i32 1, i32* %4, align 4
  br label %11

11:                                               ; preds = %15, %0
  %12 = load i8, i8* %3, align 1
  %13 = sext i8 %12 to i32
  %14 = icmp eq i32 %13, 44
  br i1 %14, label %15, label %23

15:                                               ; preds = %11
  %16 = load i32, i32* %4, align 4
  %17 = sext i32 %16 to i64
  %18 = getelementptr inbounds [300 x i32], [300 x i32]* %2, i64 0, i64 %17
  %19 = call i32 (i8*, ...) @__isoc99_scanf(i8* getelementptr inbounds ([3 x i8], [3 x i8]* @.str, i64 0, i64 0), i32* %18)
  %20 = call i32 (i8*, ...) @__isoc99_scanf(i8* getelementptr inbounds ([3 x i8], [3 x i8]* @.str.1, i64 0, i64 0), i8* %3)
  %21 = load i32, i32* %4, align 4
  %22 = add nsw i32 %21, 1
  store i32 %22, i32* %4, align 4
  br label %11

23:                                               ; preds = %11
  %24 = load i32, i32* %4, align 4
  store i32 %24, i32* %5, align 4
  store i32 1, i32* %4, align 4
  %25 = getelementptr inbounds [300 x i32], [300 x i32]* %2, i64 0, i64 0
  %26 = load i32, i32* %25, align 16
  store i32 %26, i32* %6, align 4
  %27 = load i32, i32* %5, align 4
  %28 = icmp eq i32 %27, 1
  br i1 %28, label %29, label %31

29:                                               ; preds = %23
  %30 = call i32 (i8*, ...) @printf(i8* getelementptr inbounds ([3 x i8], [3 x i8]* @.str.2, i64 0, i64 0))
  br label %100

31:                                               ; preds = %23
  br label %32

32:                                               ; preds = %48, %31
  %33 = load i32, i32* %4, align 4
  %34 = load i32, i32* %5, align 4
  %35 = icmp slt i32 %33, %34
  br i1 %35, label %36, label %51

36:                                               ; preds = %32
  %37 = load i32, i32* %6, align 4
  %38 = load i32, i32* %4, align 4
  %39 = sext i32 %38 to i64
  %40 = getelementptr inbounds [300 x i32], [300 x i32]* %2, i64 0, i64 %39
  %41 = load i32, i32* %40, align 4
  %42 = icmp slt i32 %37, %41
  br i1 %42, label %43, label %48

43:                                               ; preds = %36
  %44 = load i32, i32* %4, align 4
  %45 = sext i32 %44 to i64
  %46 = getelementptr inbounds [300 x i32], [300 x i32]* %2, i64 0, i64 %45
  %47 = load i32, i32* %46, align 4
  store i32 %47, i32* %6, align 4
  br label %48

48:                                               ; preds = %43, %36
  %49 = load i32, i32* %4, align 4
  %50 = add nsw i32 %49, 1
  store i32 %50, i32* %4, align 4
  br label %32

51:                                               ; preds = %32
  %52 = load i32, i32* %6, align 4
  %53 = getelementptr inbounds [300 x i32], [300 x i32]* %2, i64 0, i64 0
  %54 = load i32, i32* %53, align 16
  %55 = icmp eq i32 %52, %54
  br i1 %55, label %56, label %57

56:                                               ; preds = %51
  store i32 0, i32* %7, align 4
  br label %60

57:                                               ; preds = %51
  %58 = getelementptr inbounds [300 x i32], [300 x i32]* %2, i64 0, i64 0
  %59 = load i32, i32* %58, align 16
  store i32 %59, i32* %7, align 4
  br label %60

60:                                               ; preds = %57, %56
  store i32 0, i32* %4, align 4
  br label %61

61:                                               ; preds = %84, %60
  %62 = load i32, i32* %4, align 4
  %63 = load i32, i32* %5, align 4
  %64 = icmp slt i32 %62, %63
  br i1 %64, label %65, label %87

65:                                               ; preds = %61
  %66 = load i32, i32* %7, align 4
  %67 = load i32, i32* %4, align 4
  %68 = sext i32 %67 to i64
  %69 = getelementptr inbounds [300 x i32], [300 x i32]* %2, i64 0, i64 %68
  %70 = load i32, i32* %69, align 4
  %71 = icmp slt i32 %66, %70
  br i1 %71, label %72, label %84

72:                                               ; preds = %65
  %73 = load i32, i32* %4, align 4
  %74 = sext i32 %73 to i64
  %75 = getelementptr inbounds [300 x i32], [300 x i32]* %2, i64 0, i64 %74
  %76 = load i32, i32* %75, align 4
  %77 = load i32, i32* %6, align 4
  %78 = icmp ne i32 %76, %77
  br i1 %78, label %79, label %84

79:                                               ; preds = %72
  %80 = load i32, i32* %4, align 4
  %81 = sext i32 %80 to i64
  %82 = getelementptr inbounds [300 x i32], [300 x i32]* %2, i64 0, i64 %81
  %83 = load i32, i32* %82, align 4
  store i32 %83, i32* %7, align 4
  br label %84

84:                                               ; preds = %79, %72, %65
  %85 = load i32, i32* %4, align 4
  %86 = add nsw i32 %85, 1
  store i32 %86, i32* %4, align 4
  br label %61

87:                                               ; preds = %61
  %88 = load i32, i32* %6, align 4
  %89 = load i32, i32* %7, align 4
  %90 = icmp eq i32 %88, %89
  br i1 %90, label %94, label %91

91:                                               ; preds = %87
  %92 = load i32, i32* %7, align 4
  %93 = icmp eq i32 %92, 0
  br i1 %93, label %94, label %96

94:                                               ; preds = %91, %87
  %95 = call i32 (i8*, ...) @printf(i8* getelementptr inbounds ([3 x i8], [3 x i8]* @.str.2, i64 0, i64 0))
  br label %99

96:                                               ; preds = %91
  %97 = load i32, i32* %7, align 4
  %98 = call i32 (i8*, ...) @printf(i8* getelementptr inbounds ([3 x i8], [3 x i8]* @.str, i64 0, i64 0), i32 %97)
  br label %99

99:                                               ; preds = %96, %94
  br label %100

100:                                              ; preds = %99, %29
  ret i32 0
}

declare dso_local i32 @__isoc99_scanf(i8*, ...) #1

declare dso_local i32 @printf(i8*, ...) #1


!llvm.module.flags = !{!0}
!llvm.ident = !{!1}

!0 = !{i32 1, !"wchar_size", i32 4}
!1 = !{!"clang version 10.0.0-4ubuntu1 "}
